target datalayout = "e-m:e-p270:32:32-p271:32:32-p272:64:64-i64:64-i128:128-f80:128-n8:16:32:64-S128"
target triple = "x86_64-pc-linux-gnu"

%struct.pg_uuid_t = type { [16 x i8] }

@.str = private unnamed_addr constant [33 x i8] c"could not generate random values\00", align 1
@.str.1 = private unnamed_addr constant [7 x i8] c"uuid.c\00", align 1
@__func__.gen_random_uuid = private unnamed_addr constant [16 x i8] c"gen_random_uuid\00", align 1

; Function Attrs: inlinehint nounwind uwtable
define internal i64 @PointerGetDatum(ptr noundef %0) #2 {
  %2 = alloca ptr, align 8
  store ptr %0, ptr %2, align 8
  %3 = load ptr, ptr %2, align 8
  %4 = ptrtoint ptr %3 to i64
  ret i64 %4
}

; Function Attrs: inlinehint nounwind uwtable
define internal i64 @UUIDPGetDatum(ptr noundef %0) #2 {
  %2 = alloca ptr, align 8
  store ptr %0, ptr %2, align 8
  %3 = load ptr, ptr %2, align 8
  %4 = call i64 @PointerGetDatum(ptr noundef %3)
  ret i64 %4
}

; Function Attrs: inlinehint nounwind uwtable
define internal void @uuid_set_version(ptr noundef %0, i8 noundef zeroext %1) #2 {
  %3 = alloca ptr, align 8
  %4 = alloca i8, align 1
  store ptr %0, ptr %3, align 8
  store i8 %1, ptr %4, align 1
  %5 = load ptr, ptr %3, align 8
  %6 = getelementptr inbounds nuw %struct.pg_uuid_t, ptr %5, i32 0, i32 0
  %7 = getelementptr inbounds [16 x i8], ptr %6, i64 0, i64 6
  %8 = load i8, ptr %7, align 1
  %9 = zext i8 %8 to i32
  %10 = and i32 %9, 15
  %11 = load i8, ptr %4, align 1
  %12 = zext i8 %11 to i32
  %13 = shl i32 %12, 4
  %14 = or i32 %10, %13
  %15 = trunc i32 %14 to i8
  %16 = load ptr, ptr %3, align 8
  %17 = getelementptr inbounds nuw %struct.pg_uuid_t, ptr %16, i32 0, i32 0
  %18 = getelementptr inbounds [16 x i8], ptr %17, i64 0, i64 6
  store i8 %15, ptr %18, align 1
  %19 = load ptr, ptr %3, align 8
  %20 = getelementptr inbounds nuw %struct.pg_uuid_t, ptr %19, i32 0, i32 0
  %21 = getelementptr inbounds [16 x i8], ptr %20, i64 0, i64 8
  %22 = load i8, ptr %21, align 1
  %23 = zext i8 %22 to i32
  %24 = and i32 %23, 63
  %25 = or i32 %24, 128
  %26 = trunc i32 %25 to i8
  %27 = load ptr, ptr %3, align 8
  %28 = getelementptr inbounds nuw %struct.pg_uuid_t, ptr %27, i32 0, i32 0
  %29 = getelementptr inbounds [16 x i8], ptr %28, i64 0, i64 8
  store i8 %26, ptr %29, align 1
  ret void
}

; Function Attrs: nounwind uwtable
define dso_local i64 @gen_random_uuid(ptr noundef %0) #0 {
  %2 = alloca ptr, align 8
  %3 = alloca ptr, align 8
  store ptr %0, ptr %2, align 8
  call void @llvm.lifetime.start.p0(i64 8, ptr %3) #10
  %4 = call ptr @palloc(i64 noundef 16)
  store ptr %4, ptr %3, align 8
  %5 = load ptr, ptr %3, align 8
  %6 = call zeroext i1 @pg_strong_random(ptr noundef %5, i64 noundef 16)
  br i1 %6, label %19, label %7

7:                                                ; preds = %1
  br label %8

8:                                                ; preds = %7
  br i1 true, label %9, label %11

9:                                                ; preds = %8
  %10 = call zeroext i1 @errstart_cold(i32 noundef 21, ptr noundef null) #13
  br i1 %10, label %13, label %16

11:                                               ; preds = %8
  %12 = call zeroext i1 @errstart(i32 noundef 21, ptr noundef null)
  br i1 %12, label %13, label %16

13:                                               ; preds = %11, %9
  %14 = call i32 @errcode(i32 noundef 2600)
  %15 = call i32 (ptr, ...) @errmsg(ptr noundef @.str)
  call void @errfinish(ptr noundef @.str.1, i32 noundef 463, ptr noundef @__func__.gen_random_uuid)
  br label %16

16:                                               ; preds = %13, %11, %9
  unreachable

17:                                               ; No predecessors!
  br label %18

18:                                               ; preds = %17
  br label %19

19:                                               ; preds = %18, %1
  %20 = load ptr, ptr %3, align 8
  call void @uuid_set_version(ptr noundef %20, i8 noundef zeroext 4)
  %21 = load ptr, ptr %3, align 8
  %22 = call i64 @UUIDPGetDatum(ptr noundef %21)
  call void @llvm.lifetime.end.p0(i64 8, ptr %3) #10
  ret i64 %22
}