; Function Attrs: nounwind uwtable
define dso_local noundef i64 @gen_random_uuid(ptr noundef readnone captures(none) %0) local_unnamed_addr #0 {
  %2 = tail call ptr @palloc(i64 noundef 16) #15
  %3 = tail call zeroext i1 @pg_strong_random(ptr noundef %2, i64 noundef 16) #15
  br i1 %3, label %8, label %4

4:                                                ; preds = %1
  %5 = tail call zeroext i1 @errstart_cold(i32 noundef 21, ptr noundef null) #18
  tail call void @llvm.assume(i1 %5)
  %6 = tail call i32 @errcode(i32 noundef 2600) #15
  %7 = tail call i32 (ptr, ...) @errmsg(ptr noundef nonnull @.str) #15
  tail call void @errfinish(ptr noundef nonnull @.str.1, i32 noundef 463, ptr noundef nonnull @__func__.gen_random_uuid) #15
  unreachable

8:                                                ; preds = %1
  %9 = getelementptr inbounds nuw i8, ptr %2, i64 6
  %10 = load i8, ptr %9, align 1
  %11 = and i8 %10, 15
  %12 = or disjoint i8 %11, 64
  store i8 %12, ptr %9, align 1
  %13 = getelementptr inbounds nuw i8, ptr %2, i64 8
  %14 = load i8, ptr %13, align 1
  %15 = and i8 %14, 63
  %16 = or disjoint i8 %15, -128
  store i8 %16, ptr %13, align 1
  %17 = ptrtoint ptr %2 to i64
  ret i64 %17
}